target datalayout = "e-m:e-p270:32:32-p271:32:32-p272:64:64-i64:64-i128:128-f80:128-n8:16:32:64-S128"
target triple = "x86_64-pc-linux-gnu"

%class.LogTagSet = type { ptr, i64, [5 x i32], [4 x i8], %class.LogOutputList, %class.LogDecorators, ptr }
%class.LogOutputList = type <{ [6 x ptr], i32, [4 x i8] }>
%class.LogDecorators = type { i32 }
%class.ShenandoahAdaptiveHeuristics = type { %class.ShenandoahHeuristics.base, %class.ShenandoahAllocationRate, double, double, i32, %class.TruncatedSeq }
%class.ShenandoahHeuristics.base = type <{ ptr, ptr, ptr, double, double, i64, i64, ptr, %struct.ShenandoahSharedFlag }>
%struct.ShenandoahSharedFlag = type { [64 x i8], i8, [64 x i8] }
%class.ShenandoahAllocationRate = type { double, i64, double, %class.TruncatedSeq, %class.TruncatedSeq }
%class.TruncatedSeq = type { %class.AbsSeq, ptr, i32, i32 }
%class.AbsSeq = type { ptr, i32, double, double, double, double, double }

@.str.11 = private unnamed_addr constant [25 x i8] c"Margin of error now %.2f\00", align 1
@_ZN16LogTagSetMappingILN6LogTag4typeE49ELS1_40ELS1_0ELS1_0ELS1_0ELS1_0EE7_tagsetE = linkonce_odr hidden global %class.LogTagSet zeroinitializer, comdat, align 8

; Function Attrs: mustprogress nounwind uwtable
define linkonce_odr hidden noundef zeroext i1 @_ZNK13LogOutputList8is_levelEN8LogLevel4typeE(ptr noundef nonnull align 8 dereferenceable(52) %0, i32 noundef %1) #1 comdat align 2 {
  %3 = alloca ptr, align 8
  %4 = alloca i32, align 4
  store ptr %0, ptr %3, align 8
  store i32 %1, ptr %4, align 4
  %5 = load ptr, ptr %3, align 8
  %6 = getelementptr inbounds %class.LogOutputList, ptr %5, i32 0, i32 0
  %7 = load i32, ptr %4, align 4
  %8 = zext i32 %7 to i64
  %9 = getelementptr inbounds [6 x ptr], ptr %6, i64 0, i64 %8
  %10 = load volatile ptr, ptr %9, align 8
  %11 = icmp ne ptr %10, null
  ret i1 %11
}

; Function Attrs: mustprogress nounwind uwtable
define linkonce_odr hidden noundef zeroext i1 @_ZNK9LogTagSet8is_levelEN8LogLevel4typeE(ptr noundef nonnull align 8 dereferenceable(112) %0, i32 noundef %1) #1 comdat align 2 {
  %3 = alloca ptr, align 8
  %4 = alloca i32, align 4
  store ptr %0, ptr %3, align 8
  store i32 %1, ptr %4, align 4
  %5 = load ptr, ptr %3, align 8
  %6 = getelementptr inbounds %class.LogTagSet, ptr %5, i32 0, i32 4
  %7 = load i32, ptr %4, align 4
  %8 = call noundef zeroext i1 @_ZNK13LogOutputList8is_levelEN8LogLevel4typeE(ptr noundef nonnull align 8 dereferenceable(52) %6, i32 noundef %7)
  ret i1 %8
}

; Function Attrs: mustprogress nounwind uwtable
define linkonce_odr hidden noundef nonnull align 8 dereferenceable(112) ptr @_ZN16LogTagSetMappingILN6LogTag4typeE49ELS1_40ELS1_0ELS1_0ELS1_0ELS1_0EE6tagsetEv() #1 comdat align 2 {
  ret ptr @_ZN16LogTagSetMappingILN6LogTag4typeE49ELS1_40ELS1_0ELS1_0ELS1_0ELS1_0EE7_tagsetE
}

; Function Attrs: mustprogress nounwind uwtable
define linkonce_odr hidden noundef double @_Z4MAX2IdET_S0_S0_(double noundef %0, double noundef %1) #1 comdat {
  %3 = alloca double, align 8
  %4 = alloca double, align 8
  store double %0, ptr %3, align 8
  store double %1, ptr %4, align 8
  %5 = load double, ptr %3, align 8
  %6 = load double, ptr %4, align 8
  %7 = fcmp ogt double %5, %6
  br i1 %7, label %8, label %10

8:                                                ; preds = %2
  %9 = load double, ptr %3, align 8
  br label %12

10:                                               ; preds = %2
  %11 = load double, ptr %4, align 8
  br label %12

12:                                               ; preds = %10, %8
  %13 = phi double [ %9, %8 ], [ %11, %10 ]
  ret double %13
}

; Function Attrs: mustprogress nounwind uwtable
define linkonce_odr hidden noundef double @_Z4MIN2IdET_S0_S0_(double noundef %0, double noundef %1) #1 comdat {
  %3 = alloca double, align 8
  %4 = alloca double, align 8
  store double %0, ptr %3, align 8
  store double %1, ptr %4, align 8
  %5 = load double, ptr %3, align 8
  %6 = load double, ptr %4, align 8
  %7 = fcmp olt double %5, %6
  br i1 %7, label %8, label %10

8:                                                ; preds = %2
  %9 = load double, ptr %3, align 8
  br label %12

10:                                               ; preds = %2
  %11 = load double, ptr %4, align 8
  br label %12

12:                                               ; preds = %10, %8
  %13 = phi double [ %9, %8 ], [ %11, %10 ]
  ret double %13
}

; Function Attrs: mustprogress nounwind uwtable
define linkonce_odr hidden noundef zeroext i1 @_ZN7LogImplILN6LogTag4typeE49ELS1_40ELS1_0ELS1_0ELS1_0ELS1_0EE8is_levelEN8LogLevel4typeE(i32 noundef %0) #1 comdat align 2 {
  %2 = alloca i32, align 4
  store i32 %0, ptr %2, align 4
  %3 = call noundef nonnull align 8 dereferenceable(112) ptr @_ZN16LogTagSetMappingILN6LogTag4typeE49ELS1_40ELS1_0ELS1_0ELS1_0ELS1_0EE6tagsetEv()
  %4 = load i32, ptr %2, align 4
  %5 = call noundef zeroext i1 @_ZNK9LogTagSet8is_levelEN8LogLevel4typeE(ptr noundef nonnull align 8 dereferenceable(112) %3, i32 noundef %4)
  ret i1 %5
}

; Function Attrs: mustprogress nounwind uwtable
define internal noundef double @_ZL8saturateddd(double noundef %0, double noundef %1, double noundef %2) #1 {
  %4 = alloca double, align 8
  %5 = alloca double, align 8
  %6 = alloca double, align 8
  store double %0, ptr %4, align 8
  store double %1, ptr %5, align 8
  store double %2, ptr %6, align 8
  %7 = load double, ptr %4, align 8
  %8 = load double, ptr %6, align 8
  %9 = call noundef double @_Z4MIN2IdET_S0_S0_(double noundef %7, double noundef %8)
  %10 = load double, ptr %5, align 8
  %11 = call noundef double @_Z4MAX2IdET_S0_S0_(double noundef %9, double noundef %10)
  ret double %11
}

; Function Attrs: mustprogress nounwind uwtable
define hidden void @_ZN28ShenandoahAdaptiveHeuristics22adjust_margin_of_errorEd(ptr noundef nonnull align 8 dereferenceable(464) %0, double noundef %1) #1 align 2 {
  %3 = alloca ptr, align 8
  %4 = alloca double, align 8
  store ptr %0, ptr %3, align 8
  store double %1, ptr %4, align 8
  %5 = load ptr, ptr %3, align 8
  %6 = getelementptr inbounds %class.ShenandoahAdaptiveHeuristics, ptr %5, i32 0, i32 2
  %7 = load double, ptr %6, align 8
  %8 = load double, ptr %4, align 8
  %9 = fadd double %7, %8
  %10 = call noundef double @_ZL8saturateddd(double noundef %9, double noundef 3.190000e-01, double noundef 3.291000e+00)
  %11 = getelementptr inbounds %class.ShenandoahAdaptiveHeuristics, ptr %5, i32 0, i32 2
  store double %10, ptr %11, align 8
  %12 = call noundef zeroext i1 @_ZN7LogImplILN6LogTag4typeE49ELS1_40ELS1_0ELS1_0ELS1_0ELS1_0EE8is_levelEN8LogLevel4typeE(i32 noundef 2)
  br i1 %12, label %14, label %13

13:                                               ; preds = %2
  br label %17

14:                                               ; preds = %2
  %15 = getelementptr inbounds %class.ShenandoahAdaptiveHeuristics, ptr %5, i32 0, i32 2
  %16 = load double, ptr %15, align 8
  call void (ptr, ...) @_ZN7LogImplILN6LogTag4typeE49ELS1_40ELS1_0ELS1_0ELS1_0ELS1_0EE5writeILN8LogLevel4typeE2EEEvPKcz(ptr noundef @.str.11, double noundef %16)
  br label %17

17:                                               ; preds = %14, %13
  ret void
}