; Function Attrs: mustprogress nounwind uwtable
define hidden void @_ZN28ShenandoahAdaptiveHeuristics22adjust_margin_of_errorEd(ptr nocapture noundef nonnull align 8 dereferenceable(464) %0, double noundef %1) local_unnamed_addr #0 align 2 {
  %3 = getelementptr inbounds i8, ptr %0, i64 368
  %4 = load double, ptr %3, align 8
  %5 = fadd double %4, %1
  %6 = fcmp olt double %5, 3.291000e+00
  %7 = select i1 %6, double %5, double 3.291000e+00
  %8 = fcmp ogt double %7, 3.190000e-01
  %9 = select i1 %8, double %7, double 3.190000e-01
  store double %9, ptr %3, align 8
  %10 = load volatile ptr, ptr getelementptr inbounds (i8, ptr @_ZN16LogTagSetMappingILN6LogTag4typeE49ELS1_40ELS1_0ELS1_0ELS1_0ELS1_0EE7_tagsetE, i64 56), align 8
  %.not = icmp eq ptr %10, null
  br i1 %.not, label %12, label %11

11:                                               ; preds = %2
  tail call void (ptr, ...) @_ZN7LogImplILN6LogTag4typeE49ELS1_40ELS1_0ELS1_0ELS1_0ELS1_0EE5writeILN8LogLevel4typeE2EEEvPKcz(ptr noundef nonnull @.str.11, double noundef %9)
  br label %12

12:                                               ; preds = %2, %11
  ret void
}